
./test/test.om:     file format elf32-littleriscv


Disassembly of section .rom:

00000000 <.rom>:
   0:	00020137          	lui	sp,0x20
   4:	18c010ef          	jal	ra,1190 <main>
   8:	0ff00513          	li	a0,255
   c:	000306b7          	lui	a3,0x30
  10:	00a68223          	sb	a0,4(a3) # 30004 <__heap_start+0x2e004>
  14:	ff9ff06f          	j	c <memset-0xff4>

Disassembly of section .text:

00001000 <memset>:
    1000:	00f00313          	li	t1,15
    1004:	00050713          	mv	a4,a0
    1008:	02c37e63          	bgeu	t1,a2,1044 <memset+0x44>
    100c:	00f77793          	andi	a5,a4,15
    1010:	0a079063          	bnez	a5,10b0 <memset+0xb0>
    1014:	08059263          	bnez	a1,1098 <memset+0x98>
    1018:	ff067693          	andi	a3,a2,-16
    101c:	00f67613          	andi	a2,a2,15
    1020:	00e686b3          	add	a3,a3,a4
    1024:	00b72023          	sw	a1,0(a4)
    1028:	00b72223          	sw	a1,4(a4)
    102c:	00b72423          	sw	a1,8(a4)
    1030:	00b72623          	sw	a1,12(a4)
    1034:	01070713          	addi	a4,a4,16
    1038:	fed766e3          	bltu	a4,a3,1024 <memset+0x24>
    103c:	00061463          	bnez	a2,1044 <memset+0x44>
    1040:	00008067          	ret
    1044:	40c306b3          	sub	a3,t1,a2
    1048:	00269693          	slli	a3,a3,0x2
    104c:	00000297          	auipc	t0,0x0
    1050:	005686b3          	add	a3,a3,t0
    1054:	00c68067          	jr	12(a3)
    1058:	00b70723          	sb	a1,14(a4)
    105c:	00b706a3          	sb	a1,13(a4)
    1060:	00b70623          	sb	a1,12(a4)
    1064:	00b705a3          	sb	a1,11(a4)
    1068:	00b70523          	sb	a1,10(a4)
    106c:	00b704a3          	sb	a1,9(a4)
    1070:	00b70423          	sb	a1,8(a4)
    1074:	00b703a3          	sb	a1,7(a4)
    1078:	00b70323          	sb	a1,6(a4)
    107c:	00b702a3          	sb	a1,5(a4)
    1080:	00b70223          	sb	a1,4(a4)
    1084:	00b701a3          	sb	a1,3(a4)
    1088:	00b70123          	sb	a1,2(a4)
    108c:	00b700a3          	sb	a1,1(a4)
    1090:	00b70023          	sb	a1,0(a4)
    1094:	00008067          	ret
    1098:	0ff5f593          	andi	a1,a1,255
    109c:	00859693          	slli	a3,a1,0x8
    10a0:	00d5e5b3          	or	a1,a1,a3
    10a4:	01059693          	slli	a3,a1,0x10
    10a8:	00d5e5b3          	or	a1,a1,a3
    10ac:	f6dff06f          	j	1018 <memset+0x18>
    10b0:	00279693          	slli	a3,a5,0x2
    10b4:	00000297          	auipc	t0,0x0
    10b8:	005686b3          	add	a3,a3,t0
    10bc:	00008293          	mv	t0,ra
    10c0:	fa0680e7          	jalr	-96(a3)
    10c4:	00028093          	mv	ra,t0
    10c8:	ff078793          	addi	a5,a5,-16
    10cc:	40f70733          	sub	a4,a4,a5
    10d0:	00f60633          	add	a2,a2,a5
    10d4:	f6c378e3          	bgeu	t1,a2,1044 <memset+0x44>
    10d8:	f3dff06f          	j	1014 <memset+0x14>

000010dc <__divsi3>:
    10dc:	06054063          	bltz	a0,113c <__umodsi3+0x10>
    10e0:	0605c663          	bltz	a1,114c <__umodsi3+0x20>

000010e4 <__udivsi3>:
    10e4:	00058613          	mv	a2,a1
    10e8:	00050593          	mv	a1,a0
    10ec:	fff00513          	li	a0,-1
    10f0:	02060c63          	beqz	a2,1128 <__udivsi3+0x44>
    10f4:	00100693          	li	a3,1
    10f8:	00b67a63          	bgeu	a2,a1,110c <__udivsi3+0x28>
    10fc:	00c05863          	blez	a2,110c <__udivsi3+0x28>
    1100:	00161613          	slli	a2,a2,0x1
    1104:	00169693          	slli	a3,a3,0x1
    1108:	feb66ae3          	bltu	a2,a1,10fc <__udivsi3+0x18>
    110c:	00000513          	li	a0,0
    1110:	00c5e663          	bltu	a1,a2,111c <__udivsi3+0x38>
    1114:	40c585b3          	sub	a1,a1,a2
    1118:	00d56533          	or	a0,a0,a3
    111c:	0016d693          	srli	a3,a3,0x1
    1120:	00165613          	srli	a2,a2,0x1
    1124:	fe0696e3          	bnez	a3,1110 <__udivsi3+0x2c>
    1128:	00008067          	ret

0000112c <__umodsi3>:
    112c:	00008293          	mv	t0,ra
    1130:	fb5ff0ef          	jal	ra,10e4 <__udivsi3>
    1134:	00058513          	mv	a0,a1
    1138:	00028067          	jr	t0 # 10b4 <memset+0xb4>
    113c:	40a00533          	neg	a0,a0
    1140:	00b04863          	bgtz	a1,1150 <__umodsi3+0x24>
    1144:	40b005b3          	neg	a1,a1
    1148:	f9dff06f          	j	10e4 <__udivsi3>
    114c:	40b005b3          	neg	a1,a1
    1150:	00008293          	mv	t0,ra
    1154:	f91ff0ef          	jal	ra,10e4 <__udivsi3>
    1158:	40a00533          	neg	a0,a0
    115c:	00028067          	jr	t0

00001160 <__modsi3>:
    1160:	00008293          	mv	t0,ra
    1164:	0005ca63          	bltz	a1,1178 <__modsi3+0x18>
    1168:	00054c63          	bltz	a0,1180 <__modsi3+0x20>
    116c:	f79ff0ef          	jal	ra,10e4 <__udivsi3>
    1170:	00058513          	mv	a0,a1
    1174:	00028067          	jr	t0
    1178:	40b005b3          	neg	a1,a1
    117c:	fe0558e3          	bgez	a0,116c <__modsi3+0xc>
    1180:	40a00533          	neg	a0,a0
    1184:	f61ff0ef          	jal	ra,10e4 <__udivsi3>
    1188:	40b00533          	neg	a0,a1
    118c:	00028067          	jr	t0

Disassembly of section .text.startup:

00001190 <main>:
    1190:	81010113          	addi	sp,sp,-2032 # 1f810 <__heap_start+0x1d810>
    1194:	ffff7337          	lui	t1,0xffff7
    1198:	7e912223          	sw	s1,2020(sp)
    119c:	b7030313          	addi	t1,t1,-1168 # ffff6b70 <__heap_start+0xffff4b70>
    11a0:	0000a4b7          	lui	s1,0xa
    11a4:	7e812423          	sw	s0,2024(sp)
    11a8:	7f212023          	sw	s2,2016(sp)
    11ac:	7d312e23          	sw	s3,2012(sp)
    11b0:	7d612823          	sw	s6,2000(sp)
    11b4:	7e112623          	sw	ra,2028(sp)
    11b8:	7d412c23          	sw	s4,2008(sp)
    11bc:	7d512a23          	sw	s5,2004(sp)
    11c0:	7d712623          	sw	s7,1996(sp)
    11c4:	ffff6537          	lui	a0,0xffff6
    11c8:	00610133          	add	sp,sp,t1
    11cc:	c5048793          	addi	a5,s1,-944 # 9c50 <__heap_start+0x7c50>
    11d0:	002787b3          	add	a5,a5,sp
    11d4:	0000ab37          	lui	s6,0xa
    11d8:	3c050513          	addi	a0,a0,960 # ffff63c0 <__heap_start+0xffff43c0>
    11dc:	c40b0613          	addi	a2,s6,-960 # 9c40 <__heap_start+0x7c40>
    11e0:	00a78533          	add	a0,a5,a0
    11e4:	00000593          	li	a1,0
    11e8:	e19ff0ef          	jal	ra,1000 <memset>
    11ec:	c5048793          	addi	a5,s1,-944
    11f0:	002787b3          	add	a5,a5,sp
    11f4:	00000413          	li	s0,0
    11f8:	03a00993          	li	s3,58
    11fc:	06400913          	li	s2,100
    1200:	41678b33          	sub	s6,a5,s6
    1204:	feb40793          	addi	a5,s0,-21
    1208:	00140493          	addi	s1,s0,1
    120c:	14f9f863          	bgeu	s3,a5,135c <main+0x1cc>
    1210:	01248663          	beq	s1,s2,121c <main+0x8c>
    1214:	00048413          	mv	s0,s1
    1218:	fedff06f          	j	1204 <main+0x74>
    121c:	0000a737          	lui	a4,0xa
    1220:	c5070793          	addi	a5,a4,-944 # 9c50 <__heap_start+0x7c50>
    1224:	002787b3          	add	a5,a5,sp
    1228:	ffff66b7          	lui	a3,0xffff6
    122c:	00d786b3          	add	a3,a5,a3
    1230:	de070793          	addi	a5,a4,-544
    1234:	55068693          	addi	a3,a3,1360 # ffff6550 <__heap_start+0xffff4550>
    1238:	00f10633          	add	a2,sp,a5
    123c:	00000413          	li	s0,0
    1240:	e7068793          	addi	a5,a3,-400
    1244:	0007a703          	lw	a4,0(a5)
    1248:	00478793          	addi	a5,a5,4
    124c:	00e40433          	add	s0,s0,a4
    1250:	fed79ae3          	bne	a5,a3,1244 <main+0xb4>
    1254:	19078693          	addi	a3,a5,400
    1258:	fed614e3          	bne	a2,a3,1240 <main+0xb0>
    125c:	00000a13          	li	s4,0
    1260:	00045663          	bgez	s0,126c <main+0xdc>
    1264:	40800433          	neg	s0,s0
    1268:	00100a13          	li	s4,1
    126c:	0000a7b7          	lui	a5,0xa
    1270:	ffff6937          	lui	s2,0xffff6
    1274:	c5078793          	addi	a5,a5,-944 # 9c50 <__heap_start+0x7c50>
    1278:	3b490993          	addi	s3,s2,948 # ffff63b4 <__heap_start+0xffff43b4>
    127c:	002787b3          	add	a5,a5,sp
    1280:	00000493          	li	s1,0
    1284:	013789b3          	add	s3,a5,s3
    1288:	00900b13          	li	s6,9
    128c:	00a00593          	li	a1,10
    1290:	00040513          	mv	a0,s0
    1294:	ecdff0ef          	jal	ra,1160 <__modsi3>
    1298:	00048a93          	mv	s5,s1
    129c:	00148493          	addi	s1,s1,1
    12a0:	03050793          	addi	a5,a0,48
    12a4:	00998733          	add	a4,s3,s1
    12a8:	00040513          	mv	a0,s0
    12ac:	00a00593          	li	a1,10
    12b0:	fef70fa3          	sb	a5,-1(a4)
    12b4:	00040b93          	mv	s7,s0
    12b8:	e25ff0ef          	jal	ra,10dc <__divsi3>
    12bc:	00050413          	mv	s0,a0
    12c0:	fd7b46e3          	blt	s6,s7,128c <main+0xfc>
    12c4:	020a0263          	beqz	s4,12e8 <main+0x158>
    12c8:	0000a7b7          	lui	a5,0xa
    12cc:	c5078793          	addi	a5,a5,-944 # 9c50 <__heap_start+0x7c50>
    12d0:	002787b3          	add	a5,a5,sp
    12d4:	01278933          	add	s2,a5,s2
    12d8:	009904b3          	add	s1,s2,s1
    12dc:	02d00793          	li	a5,45
    12e0:	3af48a23          	sb	a5,948(s1)
    12e4:	002a8493          	addi	s1,s5,2
    12e8:	0000a737          	lui	a4,0xa
    12ec:	ffff67b7          	lui	a5,0xffff6
    12f0:	c5070713          	addi	a4,a4,-944 # 9c50 <__heap_start+0x7c50>
    12f4:	00270733          	add	a4,a4,sp
    12f8:	3b478793          	addi	a5,a5,948 # ffff63b4 <__heap_start+0xffff43b4>
    12fc:	00f707b3          	add	a5,a4,a5
    1300:	009784b3          	add	s1,a5,s1
    1304:	00030737          	lui	a4,0x30
    1308:	fff4c683          	lbu	a3,-1(s1)
    130c:	fff48493          	addi	s1,s1,-1
    1310:	00d70023          	sb	a3,0(a4) # 30000 <__heap_start+0x2e000>
    1314:	fe979ae3          	bne	a5,s1,1308 <main+0x178>
    1318:	00a00793          	li	a5,10
    131c:	00009337          	lui	t1,0x9
    1320:	00f70023          	sb	a5,0(a4)
    1324:	49030313          	addi	t1,t1,1168 # 9490 <__heap_start+0x7490>
    1328:	00610133          	add	sp,sp,t1
    132c:	7ec12083          	lw	ra,2028(sp)
    1330:	7e812403          	lw	s0,2024(sp)
    1334:	7e412483          	lw	s1,2020(sp)
    1338:	7e012903          	lw	s2,2016(sp)
    133c:	7dc12983          	lw	s3,2012(sp)
    1340:	7d812a03          	lw	s4,2008(sp)
    1344:	7d412a83          	lw	s5,2004(sp)
    1348:	7d012b03          	lw	s6,2000(sp)
    134c:	7cc12b83          	lw	s7,1996(sp)
    1350:	00000513          	li	a0,0
    1354:	7f010113          	addi	sp,sp,2032
    1358:	00008067          	ret
    135c:	00000a13          	li	s4,0
    1360:	01900593          	li	a1,25
    1364:	000a0513          	mv	a0,s4
    1368:	d75ff0ef          	jal	ra,10dc <__divsi3>
    136c:	00850ab3          	add	s5,a0,s0
    1370:	06400593          	li	a1,100
    1374:	002a1513          	slli	a0,s4,0x2
    1378:	de9ff0ef          	jal	ra,1160 <__modsi3>
    137c:	001a9793          	slli	a5,s5,0x1
    1380:	015787b3          	add	a5,a5,s5
    1384:	00379793          	slli	a5,a5,0x3
    1388:	015787b3          	add	a5,a5,s5
    138c:	00279793          	slli	a5,a5,0x2
    1390:	00a787b3          	add	a5,a5,a0
    1394:	00279793          	slli	a5,a5,0x2
    1398:	032a0713          	addi	a4,s4,50
    139c:	00fb07b3          	add	a5,s6,a5
    13a0:	3ce7a023          	sw	a4,960(a5)
    13a4:	001a0a13          	addi	s4,s4,1
    13a8:	fb2a1ce3          	bne	s4,s2,1360 <main+0x1d0>
    13ac:	00048413          	mv	s0,s1
    13b0:	e55ff06f          	j	1204 <main+0x74>
